target datalayout = "e-m:e-p270:32:32-p271:32:32-p272:64:64-i64:64-i128:128-f80:128-n8:16:32:64-S128"
target triple = "x86_64-unknown-linux-gnu"

%"class.icu_75::UTF16CollationIterator" = type { %"class.icu_75::CollationIterator.base", ptr, ptr, ptr }
%"class.icu_75::CollationIterator.base" = type <{ %"class.icu_75::UObject", ptr, ptr, %"class.icu_75::CollationIterator::CEBuffer", i32, [4 x i8], ptr, i32, i8 }>
%"class.icu_75::UObject" = type { ptr }
%"class.icu_75::CollationIterator::CEBuffer" = type { i32, %"class.icu_75::MaybeStackArray.0" }
%"class.icu_75::MaybeStackArray.0" = type { ptr, i32, i8, [40 x i64] }
%"class.icu_75::FCDUTF16CollationIterator" = type <{ %"class.icu_75::UTF16CollationIterator", ptr, ptr, ptr, ptr, ptr, %"class.icu_75::UnicodeString", i8, [7 x i8] }>
%"class.icu_75::UnicodeString" = type { %"class.icu_75::Replaceable", %"union.icu_75::UnicodeString::StackBufferOrFields" }
%"class.icu_75::Replaceable" = type { %"class.icu_75::UObject" }
%"union.icu_75::UnicodeString::StackBufferOrFields" = type { %struct.anon.1, [32 x i8] }
%struct.anon.1 = type { i16, i32, i32, ptr }
%struct.anon = type { i16, [27 x i16] }

; Function Attrs: mustprogress nounwind uwtable
define linkonce_odr noundef i32 @_ZNK6icu_7513UnicodeString14getShortLengthEv(ptr noundef nonnull align 8 dereferenceable(64) %this) #0 comdat align 2 {
entry:
  %this.addr = alloca ptr, align 8
  store ptr %this, ptr %this.addr, align 8
  %this1 = load ptr, ptr %this.addr, align 8
  %fUnion = getelementptr inbounds %"class.icu_75::UnicodeString", ptr %this1, i32 0, i32 1
  %fLengthAndFlags = getelementptr inbounds %struct.anon.1, ptr %fUnion, i32 0, i32 0
  %0 = load i16, ptr %fLengthAndFlags, align 8
  %conv = sext i16 %0 to i32
  %shr = ashr i32 %conv, 5
  ret i32 %shr
}

; Function Attrs: mustprogress nounwind uwtable
define linkonce_odr noundef signext i8 @_ZNK6icu_7513UnicodeString14hasShortLengthEv(ptr noundef nonnull align 8 dereferenceable(64) %this) #0 comdat align 2 {
entry:
  %this.addr = alloca ptr, align 8
  store ptr %this, ptr %this.addr, align 8
  %this1 = load ptr, ptr %this.addr, align 8
  %fUnion = getelementptr inbounds %"class.icu_75::UnicodeString", ptr %this1, i32 0, i32 1
  %fLengthAndFlags = getelementptr inbounds %struct.anon.1, ptr %fUnion, i32 0, i32 0
  %0 = load i16, ptr %fLengthAndFlags, align 8
  %conv = sext i16 %0 to i32
  %cmp = icmp sge i32 %conv, 0
  %conv2 = zext i1 %cmp to i8
  ret i8 %conv2
}

; Function Attrs: mustprogress uwtable
define linkonce_odr noundef i32 @_ZNK6icu_7513UnicodeString6lengthEv(ptr noundef nonnull align 8 dereferenceable(64) %this) #1 comdat align 2 {
entry:
  %this.addr = alloca ptr, align 8
  store ptr %this, ptr %this.addr, align 8
  %this1 = load ptr, ptr %this.addr, align 8
  %call = call noundef signext i8 @_ZNK6icu_7513UnicodeString14hasShortLengthEv(ptr noundef nonnull align 8 dereferenceable(64) %this1)
  %tobool = icmp ne i8 %call, 0
  br i1 %tobool, label %cond.true, label %cond.false

cond.true:                                        ; preds = %entry
  %call2 = call noundef i32 @_ZNK6icu_7513UnicodeString14getShortLengthEv(ptr noundef nonnull align 8 dereferenceable(64) %this1)
  br label %cond.end

cond.false:                                       ; preds = %entry
  %fUnion = getelementptr inbounds %"class.icu_75::UnicodeString", ptr %this1, i32 0, i32 1
  %fLength = getelementptr inbounds %struct.anon.1, ptr %fUnion, i32 0, i32 1
  %0 = load i32, ptr %fLength, align 4
  br label %cond.end

cond.end:                                         ; preds = %cond.false, %cond.true
  %cond = phi i32 [ %call2, %cond.true ], [ %0, %cond.false ]
  ret i32 %cond
}

; Function Attrs: mustprogress nounwind uwtable
define linkonce_odr noundef ptr @_ZNK6icu_7513UnicodeString9getBufferEv(ptr noundef nonnull align 8 dereferenceable(64) %this) #0 comdat align 2 {
entry:
  %retval = alloca ptr, align 8
  %this.addr = alloca ptr, align 8
  store ptr %this, ptr %this.addr, align 8
  %this1 = load ptr, ptr %this.addr, align 8
  %fUnion = getelementptr inbounds %"class.icu_75::UnicodeString", ptr %this1, i32 0, i32 1
  %fLengthAndFlags = getelementptr inbounds %struct.anon.1, ptr %fUnion, i32 0, i32 0
  %0 = load i16, ptr %fLengthAndFlags, align 8
  %conv = sext i16 %0 to i32
  %and = and i32 %conv, 17
  %tobool = icmp ne i32 %and, 0
  br i1 %tobool, label %if.then, label %if.else

if.then:                                          ; preds = %entry
  store ptr null, ptr %retval, align 8
  br label %return

if.else:                                          ; preds = %entry
  %fUnion2 = getelementptr inbounds %"class.icu_75::UnicodeString", ptr %this1, i32 0, i32 1
  %fLengthAndFlags3 = getelementptr inbounds %struct.anon.1, ptr %fUnion2, i32 0, i32 0
  %1 = load i16, ptr %fLengthAndFlags3, align 8
  %conv4 = sext i16 %1 to i32
  %and5 = and i32 %conv4, 2
  %tobool6 = icmp ne i32 %and5, 0
  br i1 %tobool6, label %if.then7, label %if.else9

if.then7:                                         ; preds = %if.else
  %fUnion8 = getelementptr inbounds %"class.icu_75::UnicodeString", ptr %this1, i32 0, i32 1
  %fBuffer = getelementptr inbounds %struct.anon, ptr %fUnion8, i32 0, i32 1
  %arraydecay = getelementptr inbounds [27 x i16], ptr %fBuffer, i64 0, i64 0
  store ptr %arraydecay, ptr %retval, align 8
  br label %return

if.else9:                                         ; preds = %if.else
  %fUnion10 = getelementptr inbounds %"class.icu_75::UnicodeString", ptr %this1, i32 0, i32 1
  %fArray = getelementptr inbounds %struct.anon.1, ptr %fUnion10, i32 0, i32 3
  %2 = load ptr, ptr %fArray, align 8
  store ptr %2, ptr %retval, align 8
  br label %return

return:                                           ; preds = %if.else9, %if.then7, %if.then
  %3 = load ptr, ptr %retval, align 8
  ret ptr %3
}

; Function Attrs: mustprogress nounwind uwtable
define internal noundef signext i8 @_ZL9U_FAILURE10UErrorCode(i32 noundef %code) #0 {
entry:
  %code.addr = alloca i32, align 4
  store i32 %code, ptr %code.addr, align 4
  %0 = load i32, ptr %code.addr, align 4
  %cmp = icmp sgt i32 %0, 0
  %conv = zext i1 %cmp to i8
  ret i8 %conv
}

; Function Attrs: mustprogress uwtable
define noundef signext i8 @_ZN6icu_7525FCDUTF16CollationIterator9normalizeEPKDsS2_R10UErrorCode(ptr noundef nonnull align 8 dereferenceable(521) %this, ptr noundef %from, ptr noundef %to, ptr noundef nonnull align 4 dereferenceable(4) %errorCode) #1 align 2 {
entry:
  %retval = alloca i8, align 1
  %this.addr = alloca ptr, align 8
  %from.addr = alloca ptr, align 8
  %to.addr = alloca ptr, align 8
  %errorCode.addr = alloca ptr, align 8
  store ptr %this, ptr %this.addr, align 8
  store ptr %from, ptr %from.addr, align 8
  store ptr %to, ptr %to.addr, align 8
  store ptr %errorCode, ptr %errorCode.addr, align 8
  %this1 = load ptr, ptr %this.addr, align 8
  %nfcImpl = getelementptr inbounds %"class.icu_75::FCDUTF16CollationIterator", ptr %this1, i32 0, i32 5
  %0 = load ptr, ptr %nfcImpl, align 8
  %1 = load ptr, ptr %from.addr, align 8
  %2 = load ptr, ptr %to.addr, align 8
  %normalized = getelementptr inbounds %"class.icu_75::FCDUTF16CollationIterator", ptr %this1, i32 0, i32 6
  %3 = load ptr, ptr %to.addr, align 8
  %4 = load ptr, ptr %from.addr, align 8
  %sub.ptr.lhs.cast = ptrtoint ptr %3 to i64
  %sub.ptr.rhs.cast = ptrtoint ptr %4 to i64
  %sub.ptr.sub = sub i64 %sub.ptr.lhs.cast, %sub.ptr.rhs.cast
  %sub.ptr.div = sdiv exact i64 %sub.ptr.sub, 2
  %conv = trunc i64 %sub.ptr.div to i32
  %5 = load ptr, ptr %errorCode.addr, align 8
  call void @_ZNK6icu_7515Normalizer2Impl9decomposeEPKDsS2_RNS_13UnicodeStringEiR10UErrorCode(ptr noundef nonnull align 8 dereferenceable(80) %0, ptr noundef %1, ptr noundef %2, ptr noundef nonnull align 8 dereferenceable(64) %normalized, i32 noundef %conv, ptr noundef nonnull align 4 dereferenceable(4) %5)
  %6 = load ptr, ptr %errorCode.addr, align 8
  %7 = load i32, ptr %6, align 4
  %call = call noundef signext i8 @_ZL9U_FAILURE10UErrorCode(i32 noundef %7)
  %tobool = icmp ne i8 %call, 0
  br i1 %tobool, label %if.then, label %if.end

if.then:                                          ; preds = %entry
  store i8 0, ptr %retval, align 1
  br label %return

if.end:                                           ; preds = %entry
  %8 = load ptr, ptr %from.addr, align 8
  %segmentStart = getelementptr inbounds %"class.icu_75::FCDUTF16CollationIterator", ptr %this1, i32 0, i32 2
  store ptr %8, ptr %segmentStart, align 8
  %9 = load ptr, ptr %to.addr, align 8
  %segmentLimit = getelementptr inbounds %"class.icu_75::FCDUTF16CollationIterator", ptr %this1, i32 0, i32 3
  store ptr %9, ptr %segmentLimit, align 8
  %normalized2 = getelementptr inbounds %"class.icu_75::FCDUTF16CollationIterator", ptr %this1, i32 0, i32 6
  %call3 = call noundef ptr @_ZNK6icu_7513UnicodeString9getBufferEv(ptr noundef nonnull align 8 dereferenceable(64) %normalized2)
  %start = getelementptr inbounds %"class.icu_75::UTF16CollationIterator", ptr %this1, i32 0, i32 1
  store ptr %call3, ptr %start, align 8
  %start4 = getelementptr inbounds %"class.icu_75::UTF16CollationIterator", ptr %this1, i32 0, i32 1
  %10 = load ptr, ptr %start4, align 8
  %normalized5 = getelementptr inbounds %"class.icu_75::FCDUTF16CollationIterator", ptr %this1, i32 0, i32 6
  %call6 = call noundef i32 @_ZNK6icu_7513UnicodeString6lengthEv(ptr noundef nonnull align 8 dereferenceable(64) %normalized5)
  %idx.ext = sext i32 %call6 to i64
  %add.ptr = getelementptr inbounds i16, ptr %10, i64 %idx.ext
  %limit = getelementptr inbounds %"class.icu_75::UTF16CollationIterator", ptr %this1, i32 0, i32 3
  store ptr %add.ptr, ptr %limit, align 8
  store i8 1, ptr %retval, align 1
  br label %return

return:                                           ; preds = %if.end, %if.then
  %11 = load i8, ptr %retval, align 1
  ret i8 %11
}