; Function Attrs: mustprogress uwtable
define noundef signext i8 @_ZN6icu_7525FCDUTF16CollationIterator9normalizeEPKDsS2_R10UErrorCode(ptr noundef nonnull align 8 dereferenceable(521) %this, ptr noundef %from, ptr noundef %to, ptr noundef nonnull align 4 dereferenceable(4) %errorCode) local_unnamed_addr #1 align 2 {
entry:
  %nfcImpl = getelementptr inbounds i8, ptr %this, i64 448
  %0 = load ptr, ptr %nfcImpl, align 8
  %normalized = getelementptr inbounds i8, ptr %this, i64 456
  %sub.ptr.lhs.cast = ptrtoint ptr %to to i64
  %sub.ptr.rhs.cast = ptrtoint ptr %from to i64
  %sub.ptr.sub = sub i64 %sub.ptr.lhs.cast, %sub.ptr.rhs.cast
  %sub.ptr.div = lshr exact i64 %sub.ptr.sub, 1
  %conv = trunc i64 %sub.ptr.div to i32
  tail call void @_ZNK6icu_7515Normalizer2Impl9decomposeEPKDsS2_RNS_13UnicodeStringEiR10UErrorCode(ptr noundef nonnull align 8 dereferenceable(80) %0, ptr noundef %from, ptr noundef %to, ptr noundef nonnull align 8 dereferenceable(64) %normalized, i32 noundef %conv, ptr noundef nonnull align 4 dereferenceable(4) %errorCode)
  %1 = load i32, ptr %errorCode, align 4
  %cmp.i = icmp slt i32 %1, 1
  br i1 %cmp.i, label %if.end, label %return

if.end:                                           ; preds = %entry
  %segmentStart = getelementptr inbounds i8, ptr %this, i64 424
  store ptr %from, ptr %segmentStart, align 8
  %segmentLimit = getelementptr inbounds i8, ptr %this, i64 432
  store ptr %to, ptr %segmentLimit, align 8
  %fUnion.i = getelementptr inbounds i8, ptr %this, i64 464
  %2 = load i16, ptr %fUnion.i, align 8
  %conv1.i = zext i16 %2 to i32
  %and.i = and i32 %conv1.i, 17
  %tobool.not.i = icmp eq i32 %and.i, 0
  br i1 %tobool.not.i, label %if.else.i, label %_ZNK6icu_7513UnicodeString9getBufferEv.exit

if.else.i:                                        ; preds = %if.end
  %and5.i = and i32 %conv1.i, 2
  %tobool6.not.i = icmp eq i32 %and5.i, 0
  br i1 %tobool6.not.i, label %if.else9.i, label %if.then7.i

if.then7.i:                                       ; preds = %if.else.i
  %fBuffer.i = getelementptr inbounds i8, ptr %this, i64 466
  br label %_ZNK6icu_7513UnicodeString9getBufferEv.exit

if.else9.i:                                       ; preds = %if.else.i
  %fArray.i = getelementptr inbounds i8, ptr %this, i64 480
  %3 = load ptr, ptr %fArray.i, align 8
  br label %_ZNK6icu_7513UnicodeString9getBufferEv.exit

_ZNK6icu_7513UnicodeString9getBufferEv.exit:      ; preds = %if.end, %if.then7.i, %if.else9.i
  %retval.0.i = phi ptr [ %fBuffer.i, %if.then7.i ], [ %3, %if.else9.i ], [ null, %if.end ]
  %start = getelementptr inbounds i8, ptr %this, i64 392
  store ptr %retval.0.i, ptr %start, align 8
  %cmp.i.i = icmp slt i16 %2, 0
  %4 = ashr i16 %2, 5
  %shr.i.i = sext i16 %4 to i32
  %fLength.i = getelementptr inbounds i8, ptr %this, i64 468
  %5 = load i32, ptr %fLength.i, align 4
  %cond.i = select i1 %cmp.i.i, i32 %5, i32 %shr.i.i
  %idx.ext = sext i32 %cond.i to i64
  %add.ptr = getelementptr inbounds i16, ptr %retval.0.i, i64 %idx.ext
  %limit = getelementptr inbounds i8, ptr %this, i64 408
  store ptr %add.ptr, ptr %limit, align 8
  br label %return

return:                                           ; preds = %entry, %_ZNK6icu_7513UnicodeString9getBufferEv.exit
  %retval.0 = phi i8 [ 1, %_ZNK6icu_7513UnicodeString9getBufferEv.exit ], [ 0, %entry ]
  ret i8 %retval.0
}